(lp0
Vhttps://en.wikipedia.org/wiki/Michy_Batshuayi
p1
aVhttps://bleacherreport.com/articles/2785862-why-france-are-carrying-africas-hopes-in-the-world-cup-final
p2
aVhttps://en.wikipedia.org/wiki/Samuel_Umtiti
p3
aVhttp://www.espn.com/espn/feature/story/_/id/23402874/world-cup-rank-espn-fc
p4
aVhttps://en.wikipedia.org/wiki/France_national_football_team
p5
aVhttps://www.aljazeera.com/indepth/opinion/african-football-players-finally-coming-home-180613085622382.html
p6
aVhttps://en.wikipedia.org/wiki/Paul_Pogba
p7
aVhttps://www.theguardian.com/football/ng-interactive/2018/jun/05/world-cup-2018-complete-guide-players-ratings-goals-caps
p8
aVhttps://www.vox.com/2018/6/12/17356780/world-cup-2018-russia-teams-schedule-tickets
p9
aVhttps://www.washingtonpost.com/news/global-opinions/wp/2018/07/10/why-calling-france-the-last-african-team-in-the-world-cup-is-problematic/
p10
a.